target datalayout = "e-m:e-p270:32:32-p271:32:32-p272:64:64-i64:64-i128:128-f80:128-n8:16:32:64-S128"
target triple = "x86_64-pc-linux-gnu"

%struct.Gia_Obj_t_ = type <{ i64, i32 }>
%struct.Vec_Int_t_ = type { i32, i32, ptr }
%struct.Gia_Man_t_ = type { ptr, ptr, i32, i32, i32, i32, ptr, ptr, i32, i32, i32, ptr, ptr, %struct.Vec_Int_t_, %struct.Vec_Int_t_, i32, i32, i32, %struct.Vec_Int_t_, ptr, ptr, ptr, i32, i32, i32, i32, ptr, ptr, ptr, ptr, ptr, i32, i32, ptr, i32, ptr, ptr, ptr, ptr, ptr, ptr, ptr, ptr, ptr, ptr, ptr, ptr, ptr, ptr, ptr, ptr, ptr, ptr, %struct.Vec_Int_t_, %struct.Vec_Int_t_, ptr, ptr, ptr, ptr, ptr, ptr, ptr, ptr, ptr, ptr, ptr, ptr, ptr, ptr, ptr, ptr, ptr, ptr, ptr, ptr, ptr, i32, float, float, ptr, ptr, i32, ptr, ptr, ptr, ptr, ptr, ptr, ptr, ptr, ptr, ptr, ptr, ptr, ptr, ptr, ptr, i64, i64, ptr, ptr, i32, i32, i32, i32, i32, i32, i32, i32, i32, i32, i32, i32, ptr, ptr, ptr, ptr, ptr, ptr, ptr, ptr, i32, i32, i32, ptr, i32, i32, ptr, ptr, ptr, ptr, ptr, ptr, i32, i32, ptr, %struct.Vec_Int_t_, %struct.Vec_Int_t_, %struct.Vec_Int_t_, ptr, ptr, ptr, i32, i32, i32, i32, ptr, ptr, ptr, ptr, ptr }

@.str.6 = private unnamed_addr constant [21 x i8] c"Problem for leaf %d\0A\00", align 1

; Function Attrs: inlinehint nounwind uwtable
define internal i32 @Gia_ObjFaninC1(ptr noundef %0) #2 {
  %2 = alloca ptr, align 8
  store ptr %0, ptr %2, align 8, !tbaa !12
  %3 = load ptr, ptr %2, align 8, !tbaa !12
  %4 = load i64, ptr %3, align 4
  %5 = lshr i64 %4, 61
  %6 = and i64 %5, 1
  %7 = trunc i64 %6 to i32
  ret i32 %7
}

; Function Attrs: inlinehint nounwind uwtable
define internal i32 @Abc_LitNotCond(i32 noundef %0, i32 noundef %1) #2 {
  %3 = alloca i32, align 4
  %4 = alloca i32, align 4
  store i32 %0, ptr %3, align 4, !tbaa !8
  store i32 %1, ptr %4, align 4, !tbaa !8
  %5 = load i32, ptr %3, align 4, !tbaa !8
  %6 = load i32, ptr %4, align 4, !tbaa !8
  %7 = icmp sgt i32 %6, 0
  %8 = zext i1 %7 to i32
  %9 = xor i32 %5, %8
  ret i32 %9
}

; Function Attrs: inlinehint nounwind uwtable
define internal i32 @Gia_ObjFaninC0(ptr noundef %0) #2 {
  %2 = alloca ptr, align 8
  store ptr %0, ptr %2, align 8, !tbaa !12
  %3 = load ptr, ptr %2, align 8, !tbaa !12
  %4 = load i64, ptr %3, align 4
  %5 = lshr i64 %4, 29
  %6 = and i64 %5, 1
  %7 = trunc i64 %6 to i32
  ret i32 %7
}

; Function Attrs: inlinehint nounwind uwtable
define internal i32 @Gia_ObjFaninId1(ptr noundef %0, i32 noundef %1) #2 {
  %3 = alloca ptr, align 8
  %4 = alloca i32, align 4
  store ptr %0, ptr %3, align 8, !tbaa !12
  store i32 %1, ptr %4, align 4, !tbaa !8
  %5 = load i32, ptr %4, align 4, !tbaa !8
  %6 = load ptr, ptr %3, align 8, !tbaa !12
  %7 = load i64, ptr %6, align 4
  %8 = lshr i64 %7, 32
  %9 = and i64 %8, 536870911
  %10 = trunc i64 %9 to i32
  %11 = sub nsw i32 %5, %10
  ret i32 %11
}

; Function Attrs: inlinehint nounwind uwtable
define internal i32 @Gia_ObjFaninId0(ptr noundef %0, i32 noundef %1) #2 {
  %3 = alloca ptr, align 8
  %4 = alloca i32, align 4
  store ptr %0, ptr %3, align 8, !tbaa !12
  store i32 %1, ptr %4, align 4, !tbaa !8
  %5 = load i32, ptr %4, align 4, !tbaa !8
  %6 = load ptr, ptr %3, align 8, !tbaa !12
  %7 = load i64, ptr %6, align 4
  %8 = and i64 %7, 536870911
  %9 = trunc i64 %8 to i32
  %10 = sub nsw i32 %5, %9
  ret i32 %10
}

; Function Attrs: inlinehint nounwind uwtable
define internal ptr @Gia_ManObj(ptr noundef %0, i32 noundef %1) #2 {
  %3 = alloca ptr, align 8
  %4 = alloca i32, align 4
  store ptr %0, ptr %3, align 8, !tbaa !3
  store i32 %1, ptr %4, align 4, !tbaa !8
  %5 = load ptr, ptr %3, align 8, !tbaa !3
  %6 = getelementptr inbounds nuw %struct.Gia_Man_t_, ptr %5, i32 0, i32 6
  %7 = load ptr, ptr %6, align 8, !tbaa !19
  %8 = load i32, ptr %4, align 4, !tbaa !8
  %9 = sext i32 %8 to i64
  %10 = getelementptr inbounds %struct.Gia_Obj_t_, ptr %7, i64 %9
  ret ptr %10
}

; Function Attrs: inlinehint nounwind uwtable
define internal i32 @Abc_Var2Lit(i32 noundef %0, i32 noundef %1) #2 {
  %3 = alloca i32, align 4
  %4 = alloca i32, align 4
  store i32 %0, ptr %3, align 4, !tbaa !8
  store i32 %1, ptr %4, align 4, !tbaa !8
  %5 = load i32, ptr %3, align 4, !tbaa !8
  %6 = load i32, ptr %3, align 4, !tbaa !8
  %7 = add nsw i32 %5, %6
  %8 = load i32, ptr %4, align 4, !tbaa !8
  %9 = add nsw i32 %7, %8
  ret i32 %9
}

; Function Attrs: nounwind uwtable
define i32 @Acec_DetectLitPolarity(ptr noundef %0, i32 noundef %1, i32 noundef %2) #0 {
  %4 = alloca i32, align 4
  %5 = alloca ptr, align 8
  %6 = alloca i32, align 4
  %7 = alloca i32, align 4
  %8 = alloca ptr, align 8
  %9 = alloca i32, align 4
  %10 = alloca i32, align 4
  %11 = alloca i32, align 4
  store ptr %0, ptr %5, align 8, !tbaa !3
  store i32 %1, ptr %6, align 4, !tbaa !8
  store i32 %2, ptr %7, align 4, !tbaa !8
  call void @llvm.lifetime.start.p0(i64 8, ptr %8) #11
  call void @llvm.lifetime.start.p0(i64 4, ptr %9) #11
  call void @llvm.lifetime.start.p0(i64 4, ptr %10) #11
  %12 = load i32, ptr %6, align 4, !tbaa !8
  %13 = load i32, ptr %7, align 4, !tbaa !8
  %14 = icmp slt i32 %12, %13
  br i1 %14, label %15, label %16

15:                                               ; preds = %3
  store i32 -1, ptr %4, align 4
  store i32 1, ptr %11, align 4
  br label %86

16:                                               ; preds = %3
  %17 = load i32, ptr %6, align 4, !tbaa !8
  %18 = load i32, ptr %7, align 4, !tbaa !8
  %19 = icmp eq i32 %17, %18
  br i1 %19, label %20, label %23

20:                                               ; preds = %16
  %21 = load i32, ptr %6, align 4, !tbaa !8
  %22 = call i32 @Abc_Var2Lit(i32 noundef %21, i32 noundef 0)
  store i32 %22, ptr %4, align 4
  store i32 1, ptr %11, align 4
  br label %86

23:                                               ; preds = %16
  %24 = load ptr, ptr %5, align 8, !tbaa !3
  %25 = load i32, ptr %6, align 4, !tbaa !8
  %26 = call ptr @Gia_ManObj(ptr noundef %24, i32 noundef %25)
  store ptr %26, ptr %8, align 8, !tbaa !12
  %27 = load ptr, ptr %5, align 8, !tbaa !3
  %28 = load ptr, ptr %8, align 8, !tbaa !12
  %29 = load i32, ptr %6, align 4, !tbaa !8
  %30 = call i32 @Gia_ObjFaninId0(ptr noundef %28, i32 noundef %29)
  %31 = load i32, ptr %7, align 4, !tbaa !8
  %32 = call i32 @Acec_DetectLitPolarity(ptr noundef %27, i32 noundef %30, i32 noundef %31)
  store i32 %32, ptr %9, align 4, !tbaa !8
  %33 = load ptr, ptr %5, align 8, !tbaa !3
  %34 = load ptr, ptr %8, align 8, !tbaa !12
  %35 = load i32, ptr %6, align 4, !tbaa !8
  %36 = call i32 @Gia_ObjFaninId1(ptr noundef %34, i32 noundef %35)
  %37 = load i32, ptr %7, align 4, !tbaa !8
  %38 = call i32 @Acec_DetectLitPolarity(ptr noundef %33, i32 noundef %36, i32 noundef %37)
  store i32 %38, ptr %10, align 4, !tbaa !8
  %39 = load i32, ptr %9, align 4, !tbaa !8
  %40 = icmp eq i32 %39, -1
  br i1 %40, label %41, label %43

41:                                               ; preds = %23
  %42 = load i32, ptr %9, align 4, !tbaa !8
  br label %48

43:                                               ; preds = %23
  %44 = load i32, ptr %9, align 4, !tbaa !8
  %45 = load ptr, ptr %8, align 8, !tbaa !12
  %46 = call i32 @Gia_ObjFaninC0(ptr noundef %45)
  %47 = call i32 @Abc_LitNotCond(i32 noundef %44, i32 noundef %46)
  br label %48

48:                                               ; preds = %43, %41
  %49 = phi i32 [ %42, %41 ], [ %47, %43 ]
  store i32 %49, ptr %9, align 4, !tbaa !8
  %50 = load i32, ptr %10, align 4, !tbaa !8
  %51 = icmp eq i32 %50, -1
  br i1 %51, label %52, label %54

52:                                               ; preds = %48
  %53 = load i32, ptr %10, align 4, !tbaa !8
  br label %59

54:                                               ; preds = %48
  %55 = load i32, ptr %10, align 4, !tbaa !8
  %56 = load ptr, ptr %8, align 8, !tbaa !12
  %57 = call i32 @Gia_ObjFaninC1(ptr noundef %56)
  %58 = call i32 @Abc_LitNotCond(i32 noundef %55, i32 noundef %57)
  br label %59

59:                                               ; preds = %54, %52
  %60 = phi i32 [ %53, %52 ], [ %58, %54 ]
  store i32 %60, ptr %10, align 4, !tbaa !8
  %61 = load i32, ptr %9, align 4, !tbaa !8
  %62 = icmp eq i32 %61, -1
  br i1 %62, label %63, label %67

63:                                               ; preds = %59
  %64 = load i32, ptr %10, align 4, !tbaa !8
  %65 = icmp eq i32 %64, -1
  br i1 %65, label %66, label %67

66:                                               ; preds = %63
  store i32 -1, ptr %4, align 4
  store i32 1, ptr %11, align 4
  br label %86

67:                                               ; preds = %63, %59
  %68 = load i32, ptr %9, align 4, !tbaa !8
  %69 = icmp ne i32 %68, -1
  br i1 %69, label %70, label %77

70:                                               ; preds = %67
  %71 = load i32, ptr %10, align 4, !tbaa !8
  %72 = icmp ne i32 %71, -1
  br i1 %72, label %73, label %77

73:                                               ; preds = %70
  %74 = load i32, ptr %7, align 4, !tbaa !8
  %75 = call i32 (ptr, ...) @printf(ptr noundef @.str.6, i32 noundef %74)
  %76 = load i32, ptr %9, align 4, !tbaa !8
  store i32 %76, ptr %4, align 4
  store i32 1, ptr %11, align 4
  br label %86

77:                                               ; preds = %70, %67
  %78 = load i32, ptr %9, align 4, !tbaa !8
  %79 = icmp ne i32 %78, -1
  br i1 %79, label %80, label %82

80:                                               ; preds = %77
  %81 = load i32, ptr %9, align 4, !tbaa !8
  br label %84

82:                                               ; preds = %77
  %83 = load i32, ptr %10, align 4, !tbaa !8
  br label %84

84:                                               ; preds = %82, %80
  %85 = phi i32 [ %81, %80 ], [ %83, %82 ]
  store i32 %85, ptr %4, align 4
  store i32 1, ptr %11, align 4
  br label %86

86:                                               ; preds = %84, %73, %66, %20, %15
  call void @llvm.lifetime.end.p0(i64 4, ptr %10) #11
  call void @llvm.lifetime.end.p0(i64 4, ptr %9) #11
  call void @llvm.lifetime.end.p0(i64 8, ptr %8) #11
  %87 = load i32, ptr %4, align 4
  ret i32 %87
}