; Function Attrs: nofree nounwind uwtable
define i32 @Acec_DetectLitPolarity(ptr noundef %0, i32 noundef %1, i32 noundef %2) local_unnamed_addr #5 {
  %4 = icmp slt i32 %1, %2
  br i1 %4, label %47, label %5

5:                                                ; preds = %3
  %6 = icmp eq i32 %1, %2
  br i1 %6, label %7, label %9

7:                                                ; preds = %5
  %8 = shl nsw i32 %1, 1
  br label %47

9:                                                ; preds = %5
  %10 = getelementptr i8, ptr %0, i64 32
  %.val = load ptr, ptr %10, align 8, !tbaa !11
  %11 = sext i32 %1 to i64
  %12 = getelementptr inbounds %struct.Gia_Obj_t_, ptr %.val, i64 %11
  %.val41 = load i64, ptr %12, align 4
  %13 = trunc i64 %.val41 to i32
  %14 = and i32 %13, 536870911
  %15 = sub nsw i32 %1, %14
  %16 = tail call i32 @Acec_DetectLitPolarity(ptr noundef %0, i32 noundef %15, i32 noundef %2)
  %.val42 = load i64, ptr %12, align 4
  %17 = lshr i64 %.val42, 32
  %18 = trunc nuw i64 %17 to i32
  %19 = and i32 %18, 536870911
  %20 = sub nsw i32 %1, %19
  %21 = tail call i32 @Acec_DetectLitPolarity(ptr noundef %0, i32 noundef %20, i32 noundef %2)
  %22 = icmp eq i32 %16, -1
  br i1 %22, label %28, label %23

23:                                               ; preds = %9
  %.val43 = load i64, ptr %12, align 4
  %24 = trunc i64 %.val43 to i32
  %25 = lshr i32 %24, 29
  %26 = and i32 %25, 1
  %27 = xor i32 %26, %16
  br label %28

28:                                               ; preds = %9, %23
  %29 = phi i32 [ %27, %23 ], [ -1, %9 ]
  %30 = icmp eq i32 %21, -1
  br i1 %30, label %36, label %31

31:                                               ; preds = %28
  %.val44 = load i64, ptr %12, align 4
  %32 = lshr i64 %.val44, 61
  %33 = trunc nuw nsw i64 %32 to i32
  %34 = and i32 %33, 1
  %35 = xor i32 %34, %21
  br label %36

36:                                               ; preds = %28, %31
  %37 = phi i32 [ %35, %31 ], [ -1, %28 ]
  %38 = icmp eq i32 %29, -1
  %39 = icmp eq i32 %37, -1
  %or.cond = select i1 %38, i1 %39, i1 false
  br i1 %or.cond, label %47, label %40

40:                                               ; preds = %36
  %41 = icmp ne i32 %29, -1
  %42 = icmp ne i32 %37, -1
  %or.cond3 = select i1 %41, i1 %42, i1 false
  br i1 %or.cond3, label %43, label %45

43:                                               ; preds = %40
  %44 = tail call i32 (ptr, ...) @printf(ptr noundef nonnull dereferenceable(1) @.str.6, i32 noundef %2)
  br label %47

45:                                               ; preds = %40
  %46 = select i1 %41, i32 %29, i32 %37
  br label %47

47:                                               ; preds = %36, %3, %45, %43, %7
  %.0 = phi i32 [ %8, %7 ], [ %29, %43 ], [ %46, %45 ], [ -1, %3 ], [ -1, %36 ]
  ret i32 %.0
}